target datalayout = "e-m:e-p270:32:32-p271:32:32-p272:64:64-i64:64-i128:128-f80:128-n8:16:32:64-S128"
target triple = "x86_64-pc-linux-gnu"

@hf_kafka_offset = internal global i32 0, align 4
@hf_kafka_error = internal global i32 0, align 4
@hf_kafka_partition_id = internal global i32 0, align 4
@ett_kafka_partition = internal global i32 0, align 4
@.str.628 = private unnamed_addr constant [11 x i8] c"Unknown %d\00", align 1
@.str.643 = private unnamed_addr constant [10 x i8] c"Partition\00", align 1
@.str.673 = private unnamed_addr constant [21 x i8] c" (ID=%u, Offset=%li)\00", align 1
@.str.769 = private unnamed_addr constant [19 x i8] c" (ID=%u, Error=%s)\00", align 1

; Function Attrs: null_pointer_is_valid sspstrong uwtable
define internal ptr @kafka_error_to_str(i16 noundef signext %0) #0 {
  %2 = alloca i16, align 2
  store i16 %0, ptr %2, align 2
  %3 = load i16, ptr %2, align 2
  %4 = sext i16 %3 to i32
  %5 = call ptr @val_to_str(i32 noundef %4, ptr noundef @kafka_errors, ptr noundef @.str.628)
  ret ptr %5
}

; Function Attrs: null_pointer_is_valid sspstrong uwtable
define internal i32 @dissect_kafka_delete_records_response_topic_partition(ptr noundef %0, ptr noundef %1, ptr noundef %2, i32 noundef %3, i16 noundef signext %4) #0 {
  %6 = alloca ptr, align 8
  %7 = alloca ptr, align 8
  %8 = alloca ptr, align 8
  %9 = alloca i32, align 4
  %10 = alloca i16, align 2
  %11 = alloca i32, align 4
  %12 = alloca i64, align 8
  %13 = alloca i16, align 2
  %14 = alloca ptr, align 8
  %15 = alloca ptr, align 8
  store ptr %0, ptr %6, align 8
  store ptr %1, ptr %7, align 8
  store ptr %2, ptr %8, align 8
  store i32 %3, ptr %9, align 4
  store i16 %4, ptr %10, align 2
  call void @llvm.lifetime.start.p0(i64 4, ptr %11) #12
  call void @llvm.lifetime.start.p0(i64 8, ptr %12) #12
  call void @llvm.lifetime.start.p0(i64 2, ptr %13) #12
  call void @llvm.lifetime.start.p0(i64 8, ptr %14) #12
  call void @llvm.lifetime.start.p0(i64 8, ptr %15) #12
  %16 = load ptr, ptr %8, align 8
  %17 = load ptr, ptr %6, align 8
  %18 = load i32, ptr %9, align 4
  %19 = load i32, ptr @ett_kafka_partition, align 4
  %20 = call ptr @proto_tree_add_subtree(ptr noundef %16, ptr noundef %17, i32 noundef %18, i32 noundef -1, i32 noundef %19, ptr noundef %14, ptr noundef @.str.643)
  store ptr %20, ptr %15, align 8
  %21 = load ptr, ptr %6, align 8
  %22 = load i32, ptr %9, align 4
  %23 = call i32 @tvb_get_ntohl(ptr noundef %21, i32 noundef %22)
  store i32 %23, ptr %11, align 4
  %24 = load ptr, ptr %15, align 8
  %25 = load i32, ptr @hf_kafka_partition_id, align 4
  %26 = load ptr, ptr %6, align 8
  %27 = load i32, ptr %9, align 4
  %28 = call ptr @proto_tree_add_item(ptr noundef %24, i32 noundef %25, ptr noundef %26, i32 noundef %27, i32 noundef 4, i32 noundef 0)
  %29 = load i32, ptr %9, align 4
  %30 = add i32 %29, 4
  store i32 %30, ptr %9, align 4
  %31 = load ptr, ptr %6, align 8
  %32 = load i32, ptr %9, align 4
  %33 = call i64 @tvb_get_ntohi64(ptr noundef %31, i32 noundef %32)
  store i64 %33, ptr %12, align 8
  %34 = load ptr, ptr %15, align 8
  %35 = load i32, ptr @hf_kafka_offset, align 4
  %36 = load ptr, ptr %6, align 8
  %37 = load i32, ptr %9, align 4
  %38 = call ptr @proto_tree_add_item(ptr noundef %34, i32 noundef %35, ptr noundef %36, i32 noundef %37, i32 noundef 8, i32 noundef 0)
  %39 = load i32, ptr %9, align 4
  %40 = add i32 %39, 8
  store i32 %40, ptr %9, align 4
  %41 = load ptr, ptr %6, align 8
  %42 = load i32, ptr %9, align 4
  %43 = call zeroext i16 @tvb_get_ntohs(ptr noundef %41, i32 noundef %42)
  store i16 %43, ptr %13, align 2
  %44 = load ptr, ptr %15, align 8
  %45 = load i32, ptr @hf_kafka_error, align 4
  %46 = load ptr, ptr %6, align 8
  %47 = load i32, ptr %9, align 4
  %48 = call ptr @proto_tree_add_item(ptr noundef %44, i32 noundef %45, ptr noundef %46, i32 noundef %47, i32 noundef 2, i32 noundef 0)
  %49 = load i32, ptr %9, align 4
  %50 = add i32 %49, 2
  store i32 %50, ptr %9, align 4
  %51 = load ptr, ptr %14, align 8
  %52 = load ptr, ptr %6, align 8
  %53 = load i32, ptr %9, align 4
  call void @proto_item_set_end(ptr noundef %51, ptr noundef %52, i32 noundef %53)
  %54 = load i16, ptr %13, align 2
  %55 = sext i16 %54 to i32
  %56 = icmp eq i32 %55, 0
  br i1 %56, label %57, label %61

57:                                               ; preds = %5
  %58 = load ptr, ptr %14, align 8
  %59 = load i32, ptr %11, align 4
  %60 = load i64, ptr %12, align 8
  call void (ptr, ptr, ...) @proto_item_append_text(ptr noundef %58, ptr noundef @.str.673, i32 noundef %59, i64 noundef %60)
  br label %66

61:                                               ; preds = %5
  %62 = load ptr, ptr %14, align 8
  %63 = load i32, ptr %11, align 4
  %64 = load i16, ptr %13, align 2
  %65 = call ptr @kafka_error_to_str(i16 noundef signext %64)
  call void (ptr, ptr, ...) @proto_item_append_text(ptr noundef %62, ptr noundef @.str.769, i32 noundef %63, ptr noundef %65)
  br label %66

66:                                               ; preds = %61, %57
  %67 = load i32, ptr %9, align 4
  call void @llvm.lifetime.end.p0(i64 8, ptr %15) #12
  call void @llvm.lifetime.end.p0(i64 8, ptr %14) #12
  call void @llvm.lifetime.end.p0(i64 2, ptr %13) #12
  call void @llvm.lifetime.end.p0(i64 8, ptr %12) #12
  call void @llvm.lifetime.end.p0(i64 4, ptr %11) #12
  ret i32 %67
}