; Function Attrs: null_pointer_is_valid sspstrong uwtable
define internal noundef i32 @dissect_kafka_delete_records_response_topic_partition(ptr noundef %0, ptr readnone captures(none) %1, ptr noundef %2, i32 noundef %3, i16 signext %4) #0 {
  %6 = alloca ptr, align 8
  call void @llvm.lifetime.start.p0(i64 8, ptr nonnull %6) #9
  %7 = load i32, ptr @ett_kafka_partition, align 4
  %8 = call ptr @proto_tree_add_subtree(ptr noundef %2, ptr noundef %0, i32 noundef %3, i32 noundef -1, i32 noundef %7, ptr noundef nonnull %6, ptr noundef nonnull @.str.643)
  %9 = call i32 @tvb_get_ntohl(ptr noundef %0, i32 noundef %3)
  %10 = load i32, ptr @hf_kafka_partition_id, align 4
  %11 = call ptr @proto_tree_add_item(ptr noundef %8, i32 noundef %10, ptr noundef %0, i32 noundef %3, i32 noundef 4, i32 noundef 0)
  %12 = add i32 %3, 4
  %13 = call i64 @tvb_get_ntohi64(ptr noundef %0, i32 noundef %12)
  %14 = load i32, ptr @hf_kafka_offset, align 4
  %15 = call ptr @proto_tree_add_item(ptr noundef %8, i32 noundef %14, ptr noundef %0, i32 noundef %12, i32 noundef 8, i32 noundef 0)
  %16 = add i32 %3, 12
  %17 = call zeroext i16 @tvb_get_ntohs(ptr noundef %0, i32 noundef %16)
  %18 = load i32, ptr @hf_kafka_error, align 4
  %19 = call ptr @proto_tree_add_item(ptr noundef %8, i32 noundef %18, ptr noundef %0, i32 noundef %16, i32 noundef 2, i32 noundef 0)
  %20 = add i32 %3, 14
  %21 = load ptr, ptr %6, align 8
  call void @proto_item_set_end(ptr noundef %21, ptr noundef %0, i32 noundef %20)
  %22 = icmp eq i16 %17, 0
  %23 = load ptr, ptr %6, align 8
  br i1 %22, label %24, label %25

24:                                               ; preds = %5
  call void (ptr, ptr, ...) @proto_item_append_text(ptr noundef %23, ptr noundef nonnull @.str.673, i32 noundef %9, i64 noundef %13)
  br label %28

25:                                               ; preds = %5
  %26 = sext i16 %17 to i32
  %27 = call ptr @val_to_str(i32 noundef %26, ptr noundef nonnull @kafka_errors, ptr noundef nonnull @.str.628)
  call void (ptr, ptr, ...) @proto_item_append_text(ptr noundef %23, ptr noundef nonnull @.str.769, i32 noundef %9, ptr noundef %27)
  br label %28

28:                                               ; preds = %25, %24
  call void @llvm.lifetime.end.p0(i64 8, ptr nonnull %6) #9
  ret i32 %20
}